; Function Attrs: null_pointer_is_valid sspstrong uwtable
define internal i32 @netdfs_dissect_dfs_RemoveFtRoot_request(ptr noundef %0, i32 noundef %1, ptr noundef %2, ptr noundef %3, ptr noundef initializes((72, 80)) %4, ptr noundef %5) #0 {
  %7 = alloca ptr, align 8
  %8 = alloca ptr, align 8
  %9 = alloca ptr, align 8
  %10 = alloca ptr, align 8
  %11 = getelementptr inbounds nuw i8, ptr %4, i64 72
  store ptr @.str.322, ptr %11, align 8
  call void @llvm.lifetime.start.p0(i64 8, ptr nonnull %10) #4
  %12 = load i32, ptr @hf_netdfs_dfs_RemoveFtRoot_servername, align 4
  %13 = call i32 @dissect_ndr_cvstring(ptr noundef %0, i32 noundef %1, ptr noundef %2, ptr noundef %3, ptr noundef %4, ptr noundef %5, i32 noundef 2, i32 noundef %12, i1 noundef zeroext false, ptr noundef nonnull %10)
  %14 = load ptr, ptr %10, align 8
  call void (ptr, ptr, ...) @proto_item_append_text(ptr noundef %3, ptr noundef nonnull @.str.261, ptr noundef %14)
  call void @llvm.lifetime.end.p0(i64 8, ptr nonnull %10) #4
  %15 = call i32 @dissect_deferred_pointers(ptr noundef %2, ptr noundef %0, i32 noundef %13, ptr noundef %4, ptr noundef %5)
  call void @llvm.lifetime.start.p0(i64 8, ptr nonnull %9) #4
  %16 = load i32, ptr @hf_netdfs_dfs_RemoveFtRoot_dns_servername, align 4
  %17 = call i32 @dissect_ndr_cvstring(ptr noundef %0, i32 noundef %15, ptr noundef %2, ptr noundef %3, ptr noundef %4, ptr noundef %5, i32 noundef 2, i32 noundef %16, i1 noundef zeroext false, ptr noundef nonnull %9)
  %18 = load ptr, ptr %9, align 8
  call void (ptr, ptr, ...) @proto_item_append_text(ptr noundef %3, ptr noundef nonnull @.str.261, ptr noundef %18)
  call void @llvm.lifetime.end.p0(i64 8, ptr nonnull %9) #4
  %19 = call i32 @dissect_deferred_pointers(ptr noundef %2, ptr noundef %0, i32 noundef %17, ptr noundef %4, ptr noundef %5)
  call void @llvm.lifetime.start.p0(i64 8, ptr nonnull %8) #4
  %20 = load i32, ptr @hf_netdfs_dfs_RemoveFtRoot_dfsname, align 4
  %21 = call i32 @dissect_ndr_cvstring(ptr noundef %0, i32 noundef %19, ptr noundef %2, ptr noundef %3, ptr noundef %4, ptr noundef %5, i32 noundef 2, i32 noundef %20, i1 noundef zeroext false, ptr noundef nonnull %8)
  %22 = load ptr, ptr %8, align 8
  call void (ptr, ptr, ...) @proto_item_append_text(ptr noundef %3, ptr noundef nonnull @.str.261, ptr noundef %22)
  call void @llvm.lifetime.end.p0(i64 8, ptr nonnull %8) #4
  %23 = call i32 @dissect_deferred_pointers(ptr noundef %2, ptr noundef %0, i32 noundef %21, ptr noundef %4, ptr noundef %5)
  call void @llvm.lifetime.start.p0(i64 8, ptr nonnull %7) #4
  %24 = load i32, ptr @hf_netdfs_dfs_RemoveFtRoot_rootshare, align 4
  %25 = call i32 @dissect_ndr_cvstring(ptr noundef %0, i32 noundef %23, ptr noundef %2, ptr noundef %3, ptr noundef %4, ptr noundef %5, i32 noundef 2, i32 noundef %24, i1 noundef zeroext false, ptr noundef nonnull %7)
  %26 = load ptr, ptr %7, align 8
  call void (ptr, ptr, ...) @proto_item_append_text(ptr noundef %3, ptr noundef nonnull @.str.261, ptr noundef %26)
  call void @llvm.lifetime.end.p0(i64 8, ptr nonnull %7) #4
  %27 = call i32 @dissect_deferred_pointers(ptr noundef %2, ptr noundef %0, i32 noundef %25, ptr noundef %4, ptr noundef %5)
  %28 = load i32, ptr @hf_netdfs_dfs_RemoveFtRoot_flags, align 4
  %29 = call i32 @PIDL_dissect_uint32(ptr noundef %0, i32 noundef %27, ptr noundef %2, ptr noundef %3, ptr noundef %4, ptr noundef %5, i32 noundef %28, i32 noundef 0)
  %30 = call i32 @dissect_deferred_pointers(ptr noundef %2, ptr noundef %0, i32 noundef %29, ptr noundef %4, ptr noundef %5)
  %31 = load i32, ptr @hf_netdfs_dfs_RemoveFtRoot_unknown, align 4
  %32 = call i32 @dissect_ndr_toplevel_pointer(ptr noundef %0, i32 noundef %30, ptr noundef %2, ptr noundef %3, ptr noundef %4, ptr noundef %5, ptr noundef nonnull @netdfs_dissect_element_dfs_RemoveFtRoot_unknown_, i32 noundef 2, ptr noundef nonnull @.str.361, i32 noundef %31)
  %33 = call i32 @dissect_deferred_pointers(ptr noundef %2, ptr noundef %0, i32 noundef %32, ptr noundef %4, ptr noundef %5)
  ret i32 %33
}